; Function Attrs: nounwind uwtable
define internal range(i32 -1, 1) i32 @H5D__bt2_idx_copy_setup(ptr nocapture noundef readonly %0, ptr nocapture noundef readonly %1) #1 {
  %3 = alloca i64, align 8
  %4 = getelementptr inbounds i8, ptr %0, i64 24
  %5 = load ptr, ptr %4, align 8
  %6 = getelementptr inbounds i8, ptr %5, i64 32
  %7 = load ptr, ptr %6, align 8
  %.not = icmp eq ptr %7, null
  br i1 %.not, label %8, label %15

8:                                                ; preds = %2
  %9 = tail call i32 @H5D__bt2_idx_open(ptr noundef nonnull %0)
  %10 = icmp slt i32 %9, 0
  br i1 %10, label %11, label %15

11:                                               ; preds = %8
  %12 = load i64, ptr @H5E_DATASET_g, align 8
  %13 = load i64, ptr @H5E_CANTOPENOBJ_g, align 8
  %14 = tail call i32 (ptr, ptr, i32, i64, i64, ptr, ...) @H5E_printf_stack(ptr noundef nonnull @.str.2, ptr noundef nonnull @__func__.H5D__bt2_idx_copy_setup, i32 noundef 1380, i64 noundef %12, i64 noundef %13, ptr noundef nonnull @.str.28) #14
  br label %24

15:                                               ; preds = %8, %2
  store i64 -1, ptr %3, align 8
  call void @H5AC_tag(i64 noundef 2, ptr noundef nonnull %3) #14
  %16 = call i32 @H5D__bt2_idx_create(ptr noundef %1)
  %17 = icmp slt i32 %16, 0
  br i1 %17, label %18, label %22

18:                                               ; preds = %15
  %19 = load i64, ptr @H5E_DATASET_g, align 8
  %20 = load i64, ptr @H5E_CANTINIT_g, align 8
  %21 = call i32 (ptr, ptr, i32, i64, i64, ptr, ...) @H5E_printf_stack(ptr noundef nonnull @.str.2, ptr noundef nonnull @__func__.H5D__bt2_idx_copy_setup, i32 noundef 1387, i64 noundef %19, i64 noundef %20, ptr noundef nonnull @.str.38) #14
  br label %24

22:                                               ; preds = %15
  %23 = load i64, ptr %3, align 8
  call void @H5AC_tag(i64 noundef %23, ptr noundef null) #14
  br label %24

24:                                               ; preds = %22, %18, %11
  %.0 = phi i32 [ -1, %18 ], [ 0, %22 ], [ -1, %11 ]
  ret i32 %.0
}